; Function Attrs: mustprogress uwtable
define dso_local noundef i32 @_ZNK9DfgVertex6fanoutEv(ptr nocapture noundef nonnull readonly align 8 dereferenceable(72) %0) #3 align 2 personality ptr @__gxx_personality_v0 {
  %2 = alloca i32, align 4
  %3 = alloca %"class.std::function.90", align 8
  store i32 0, ptr %2, align 4
  %4 = getelementptr inbounds i8, ptr %3, i64 16
  %5 = getelementptr inbounds i8, ptr %3, i64 24
  %6 = getelementptr inbounds i8, ptr %3, i64 8
  store i64 0, ptr %6, align 8
  %7 = ptrtoint ptr %2 to i64
  store i64 %7, ptr %3, align 8
  store ptr @"_ZNSt17_Function_handlerIFvRK7DfgEdgeEZNK9DfgVertex6fanoutEvE3$_0E9_M_invokeERKSt9_Any_dataS2_", ptr %5, align 8
  store ptr @"_ZNSt17_Function_handlerIFvRK7DfgEdgeEZNK9DfgVertex6fanoutEvE3$_0E10_M_managerERSt9_Any_dataRKS7_St18_Manager_operation", ptr %4, align 8
  %8 = getelementptr inbounds i8, ptr %0, i64 24
  %9 = load ptr, ptr %8, align 8
  %.not5.i = icmp eq ptr %9, null
  br i1 %.not5.i, label %_ZNK9DfgVertex15forEachSinkEdgeESt8functionIFvRK7DfgEdgeEE.exit.thread, label %_ZNKSt8functionIFvRK7DfgEdgeEEclES2_.exit.i

thread-pre-split:                                 ; preds = %.noexc2
  br i1 %.not.i.i, label %10, label %_ZNKSt8functionIFvRK7DfgEdgeEEclES2_.exit.i

10:                                               ; preds = %thread-pre-split
  invoke void @_ZSt25__throw_bad_function_callv() #29
          to label %.noexc unwind label %.loopexit.split-lp

.noexc:                                           ; preds = %10
  unreachable

_ZNKSt8functionIFvRK7DfgEdgeEEclES2_.exit.i:      ; preds = %1, %thread-pre-split
  %.06.i7 = phi ptr [ %11, %thread-pre-split ], [ %9, %1 ]
  %11 = load ptr, ptr %.06.i7, align 8
  %12 = load ptr, ptr %5, align 8
  invoke void %12(ptr noundef nonnull align 8 dereferenceable(16) %3, ptr noundef nonnull align 8 dereferenceable(32) %.06.i7)
          to label %.noexc2 unwind label %.loopexit

.noexc2:                                          ; preds = %_ZNKSt8functionIFvRK7DfgEdgeEEclES2_.exit.i
  %.not.i = icmp eq ptr %11, null
  %.pr5 = load ptr, ptr %4, align 8
  %.not.i.i = icmp eq ptr %.pr5, null
  br i1 %.not.i, label %_ZNK9DfgVertex15forEachSinkEdgeESt8functionIFvRK7DfgEdgeEE.exit, label %thread-pre-split, !llvm.loop !13

_ZNK9DfgVertex15forEachSinkEdgeESt8functionIFvRK7DfgEdgeEE.exit: ; preds = %.noexc2
  br i1 %.not.i.i, label %_ZNSt8functionIFvRK7DfgEdgeEED2Ev.exit, label %_ZNK9DfgVertex15forEachSinkEdgeESt8functionIFvRK7DfgEdgeEE.exit.thread

_ZNK9DfgVertex15forEachSinkEdgeESt8functionIFvRK7DfgEdgeEE.exit.thread: ; preds = %1, %_ZNK9DfgVertex15forEachSinkEdgeESt8functionIFvRK7DfgEdgeEE.exit
  %13 = phi ptr [ %.pr5, %_ZNK9DfgVertex15forEachSinkEdgeESt8functionIFvRK7DfgEdgeEE.exit ], [ @"_ZNSt17_Function_handlerIFvRK7DfgEdgeEZNK9DfgVertex6fanoutEvE3$_0E10_M_managerERSt9_Any_dataRKS7_St18_Manager_operation", %1 ]
  %14 = invoke noundef zeroext i1 %13(ptr noundef nonnull align 8 dereferenceable(16) %3, ptr noundef nonnull align 8 dereferenceable(16) %3, i32 noundef 3)
          to label %_ZNSt8functionIFvRK7DfgEdgeEED2Ev.exit unwind label %15

15:                                               ; preds = %_ZNK9DfgVertex15forEachSinkEdgeESt8functionIFvRK7DfgEdgeEE.exit.thread
  %16 = landingpad { ptr, i32 }
          catch ptr null
  %17 = extractvalue { ptr, i32 } %16, 0
  call void @__clang_call_terminate(ptr %17) #27
  unreachable

_ZNSt8functionIFvRK7DfgEdgeEED2Ev.exit:           ; preds = %_ZNK9DfgVertex15forEachSinkEdgeESt8functionIFvRK7DfgEdgeEE.exit, %_ZNK9DfgVertex15forEachSinkEdgeESt8functionIFvRK7DfgEdgeEE.exit.thread
  %18 = load i32, ptr %2, align 4
  ret i32 %18

.loopexit:                                        ; preds = %_ZNKSt8functionIFvRK7DfgEdgeEEclES2_.exit.i
  %lpad.loopexit = landingpad { ptr, i32 }
          cleanup
  br label %19

.loopexit.split-lp:                               ; preds = %10
  %lpad.loopexit.split-lp = landingpad { ptr, i32 }
          cleanup
  br label %19

19:                                               ; preds = %.loopexit.split-lp, %.loopexit
  %lpad.phi = phi { ptr, i32 } [ %lpad.loopexit, %.loopexit ], [ %lpad.loopexit.split-lp, %.loopexit.split-lp ]
  %20 = load ptr, ptr %4, align 8
  %.not.i.i3 = icmp eq ptr %20, null
  br i1 %.not.i.i3, label %_ZNSt8functionIFvRK7DfgEdgeEED2Ev.exit4, label %21

21:                                               ; preds = %19
  %22 = invoke noundef zeroext i1 %20(ptr noundef nonnull align 8 dereferenceable(16) %3, ptr noundef nonnull align 8 dereferenceable(16) %3, i32 noundef 3)
          to label %_ZNSt8functionIFvRK7DfgEdgeEED2Ev.exit4 unwind label %23

23:                                               ; preds = %21
  %24 = landingpad { ptr, i32 }
          catch ptr null
  %25 = extractvalue { ptr, i32 } %24, 0
  call void @__clang_call_terminate(ptr %25) #27
  unreachable

_ZNSt8functionIFvRK7DfgEdgeEED2Ev.exit4:          ; preds = %19, %21
  resume { ptr, i32 } %lpad.phi
}